target datalayout = "e-m:e-p270:32:32-p271:32:32-p272:64:64-i64:64-i128:128-f80:128-n8:16:32:64-S128"
target triple = "x86_64-pc-linux-gnu"

%struct.sapi_header_line = type { ptr, i64, i64 }

; Function Attrs: nounwind uwtable
define dso_local i32 @sapi_add_header_ex(ptr noundef %0, i64 noundef %1, i1 noundef zeroext %2, i1 noundef zeroext %3) #0 {
  %5 = alloca ptr, align 8
  %6 = alloca i64, align 8
  %7 = alloca i8, align 1
  %8 = alloca i8, align 1
  %9 = alloca %struct.sapi_header_line, align 8
  %10 = alloca i32, align 4
  store ptr %0, ptr %5, align 8, !tbaa !15
  store i64 %1, ptr %6, align 8, !tbaa !95
  %11 = zext i1 %2 to i8
  store i8 %11, ptr %7, align 1, !tbaa !139
  %12 = zext i1 %3 to i8
  store i8 %12, ptr %8, align 1, !tbaa !139
  call void @llvm.lifetime.start.p0(i64 24, ptr %9) #15
  call void @llvm.memset.p0.i64(ptr align 8 %9, i8 0, i64 24, i1 false)
  call void @llvm.lifetime.start.p0(i64 4, ptr %10) #15
  %13 = load ptr, ptr %5, align 8, !tbaa !15
  %14 = getelementptr inbounds nuw %struct.sapi_header_line, ptr %9, i32 0, i32 0
  store ptr %13, ptr %14, align 8, !tbaa !140
  %15 = load i64, ptr %6, align 8, !tbaa !95
  %16 = getelementptr inbounds nuw %struct.sapi_header_line, ptr %9, i32 0, i32 1
  store i64 %15, ptr %16, align 8, !tbaa !142
  %17 = load i8, ptr %8, align 1, !tbaa !139, !range !101, !noundef !102
  %18 = trunc i8 %17 to i1
  %19 = select i1 %18, i32 0, i32 1
  %20 = call i32 @sapi_header_op(i32 noundef %19, ptr noundef %9)
  store i32 %20, ptr %10, align 4, !tbaa !17
  %21 = load i8, ptr %7, align 1, !tbaa !139, !range !101, !noundef !102
  %22 = trunc i8 %21 to i1
  br i1 %22, label %25, label %23

23:                                               ; preds = %4
  %24 = load ptr, ptr %5, align 8, !tbaa !15
  call void @_efree(ptr noundef %24)
  br label %25

25:                                               ; preds = %23, %4
  %26 = load i32, ptr %10, align 4, !tbaa !17
  call void @llvm.lifetime.end.p0(i64 4, ptr %10) #15
  call void @llvm.lifetime.end.p0(i64 24, ptr %9) #15
  ret i32 %26
}