; Function Attrs: nounwind uwtable
define dso_local range(i32 -1, 1) i32 @sapi_add_header_ex(ptr noundef %0, i64 noundef %1, i1 noundef zeroext %2, i1 noundef zeroext %3) local_unnamed_addr #0 {
  %5 = alloca %struct.sapi_header_line, align 8
  call void @llvm.lifetime.start.p0(i64 24, ptr nonnull %5) #19
  %6 = getelementptr inbounds nuw i8, ptr %5, i64 16
  store i64 0, ptr %6, align 8
  store ptr %0, ptr %5, align 8, !tbaa !124
  %7 = getelementptr inbounds nuw i8, ptr %5, i64 8
  store i64 %1, ptr %7, align 8, !tbaa !126
  %not. = xor i1 %3, true
  %8 = zext i1 %not. to i32
  %9 = call i32 @sapi_header_op(i32 noundef %8, ptr noundef nonnull %5)
  br i1 %2, label %11, label %10

10:                                               ; preds = %4
  call void @_efree(ptr noundef %0) #19
  br label %11

11:                                               ; preds = %10, %4
  call void @llvm.lifetime.end.p0(i64 24, ptr nonnull %5) #19
  ret i32 %9
}